target datalayout = "e-m:e-p270:32:32-p271:32:32-p272:64:64-i64:64-i128:128-f80:128-n8:16:32:64-S128"
target triple = "x86_64-pc-linux-gnu"

%"class.nanogui::TabWidgetBase" = type { %"class.nanogui::Widget.base", %"class.std::__cxx11::basic_string", %"class.std::vector.4", %"class.std::vector.9", %"class.std::vector.9", i32, i32, i32, i32, i32, i32, i32, i32, i32, i8, i8, ptr, i32, i32, %"class.std::function", %"class.std::function", %"class.std::function.14", %"class.nanogui::Color" }
%"class.nanogui::Widget.base" = type <{ %"class.nanogui::Object.base", [4 x i8], ptr, %"class.nanogui::ref", %"class.nanogui::ref.0", %"struct.nanogui::Array", %"struct.nanogui::Array", %"struct.nanogui::Array", %"class.std::vector", i8, i8, i8, i8, [4 x i8], %"class.std::__cxx11::basic_string", i32, float, i32 }>
%"class.nanogui::Object.base" = type <{ ptr, %"struct.std::atomic" }>
%"struct.std::atomic" = type { %"struct.std::__atomic_base" }
%"struct.std::__atomic_base" = type { i32 }
%"class.nanogui::ref" = type { ptr }
%"class.nanogui::ref.0" = type { ptr }
%"struct.nanogui::Array" = type { [2 x i32] }
%"class.std::vector" = type { %"struct.std::_Vector_base" }
%"struct.std::_Vector_base" = type { %"struct.std::_Vector_base<nanogui::Widget *, std::allocator<nanogui::Widget *>>::_Vector_impl" }
%"struct.std::_Vector_base<nanogui::Widget *, std::allocator<nanogui::Widget *>>::_Vector_impl" = type { %"struct.std::_Vector_base<nanogui::Widget *, std::allocator<nanogui::Widget *>>::_Vector_impl_data" }
%"struct.std::_Vector_base<nanogui::Widget *, std::allocator<nanogui::Widget *>>::_Vector_impl_data" = type { ptr, ptr, ptr }
%"class.std::__cxx11::basic_string" = type { %"struct.std::__cxx11::basic_string<char>::_Alloc_hider", i64, %union.anon }
%"struct.std::__cxx11::basic_string<char>::_Alloc_hider" = type { ptr }
%union.anon = type { i64, [8 x i8] }
%"class.std::vector.4" = type { %"struct.std::_Vector_base.5" }
%"struct.std::_Vector_base.5" = type { %"struct.std::_Vector_base<std::__cxx11::basic_string<char>, std::allocator<std::__cxx11::basic_string<char>>>::_Vector_impl" }
%"struct.std::_Vector_base<std::__cxx11::basic_string<char>, std::allocator<std::__cxx11::basic_string<char>>>::_Vector_impl" = type { %"struct.std::_Vector_base<std::__cxx11::basic_string<char>, std::allocator<std::__cxx11::basic_string<char>>>::_Vector_impl_data" }
%"struct.std::_Vector_base<std::__cxx11::basic_string<char>, std::allocator<std::__cxx11::basic_string<char>>>::_Vector_impl_data" = type { ptr, ptr, ptr }
%"class.std::vector.9" = type { %"struct.std::_Vector_base.10" }
%"struct.std::_Vector_base.10" = type { %"struct.std::_Vector_base<int, std::allocator<int>>::_Vector_impl" }
%"struct.std::_Vector_base<int, std::allocator<int>>::_Vector_impl" = type { %"struct.std::_Vector_base<int, std::allocator<int>>::_Vector_impl_data" }
%"struct.std::_Vector_base<int, std::allocator<int>>::_Vector_impl_data" = type { ptr, ptr, ptr }
%"class.std::function" = type { %"class.std::_Function_base", ptr }
%"class.std::_Function_base" = type { %"union.std::_Any_data", ptr }
%"union.std::_Any_data" = type { %"union.std::_Nocopy_types" }
%"union.std::_Nocopy_types" = type { { i64, i64 } }
%"class.std::function.14" = type { %"class.std::_Function_base", ptr }
%"class.nanogui::Color" = type { %"struct.nanogui::Array.16" }
%"struct.nanogui::Array.16" = type { [4 x float] }
%"class.nanogui::Widget" = type <{ %"class.nanogui::Object.base", [4 x i8], ptr, %"class.nanogui::ref", %"class.nanogui::ref.0", %"struct.nanogui::Array", %"struct.nanogui::Array", %"struct.nanogui::Array", %"class.std::vector", i8, i8, i8, i8, [4 x i8], %"class.std::__cxx11::basic_string", i32, float, i32, [4 x i8] }>
%"class.nanogui::Theme" = type { %"class.nanogui::Object.base", i32, i32, i32, i32, float, i32, i32, i32, i32, i32, i32, i32, float, i32, i32, i32, i32, i32, i32, %"class.nanogui::Color", %"class.nanogui::Color", %"class.nanogui::Color", %"class.nanogui::Color", %"class.nanogui::Color", %"class.nanogui::Color", %"class.nanogui::Color", %"class.nanogui::Color", %"class.nanogui::Color", %"class.nanogui::Color", %"class.nanogui::Color", %"class.nanogui::Color", %"class.nanogui::Color", %"class.nanogui::Color", %"class.nanogui::Color", %"class.nanogui::Color", %"class.nanogui::Color", %"class.nanogui::Color", %"class.nanogui::Color", %"class.nanogui::Color", %"class.nanogui::Color", %"class.nanogui::Color", %"class.nanogui::Color", %"class.nanogui::Color", %"class.nanogui::Color", i32, i32, i32, i32, i32, i32, i32, i32, i32, i32 }
%"struct.std::pair" = type <{ i32, i8, [3 x i8] }>

; Function Attrs: mustprogress nounwind uwtable
define linkonce_odr dso_local noundef nonnull align 4 dereferenceable(4) ptr @_ZNKSt6vectorIiSaIiEEixEm(ptr noundef nonnull align 8 dereferenceable(24) %0, i64 noundef %1) #2 comdat align 2 {
  %3 = alloca ptr, align 8
  %4 = alloca i64, align 8
  store ptr %0, ptr %3, align 8
  store i64 %1, ptr %4, align 8
  %5 = load ptr, ptr %3, align 8
  %6 = getelementptr inbounds %"struct.std::_Vector_base.10", ptr %5, i32 0, i32 0
  %7 = getelementptr inbounds %"struct.std::_Vector_base<int, std::allocator<int>>::_Vector_impl_data", ptr %6, i32 0, i32 0
  %8 = load ptr, ptr %7, align 8
  %9 = load i64, ptr %4, align 8
  %10 = getelementptr inbounds i32, ptr %8, i64 %9
  ret ptr %10
}

; Function Attrs: mustprogress nounwind uwtable
define linkonce_odr dso_local noundef i64 @_ZNKSt6vectorIiSaIiEE4sizeEv(ptr noundef nonnull align 8 dereferenceable(24) %0) #2 comdat align 2 {
  %2 = alloca ptr, align 8
  store ptr %0, ptr %2, align 8
  %3 = load ptr, ptr %2, align 8
  %4 = getelementptr inbounds %"struct.std::_Vector_base.10", ptr %3, i32 0, i32 0
  %5 = getelementptr inbounds %"struct.std::_Vector_base<int, std::allocator<int>>::_Vector_impl_data", ptr %4, i32 0, i32 1
  %6 = load ptr, ptr %5, align 8
  %7 = getelementptr inbounds %"struct.std::_Vector_base.10", ptr %3, i32 0, i32 0
  %8 = getelementptr inbounds %"struct.std::_Vector_base<int, std::allocator<int>>::_Vector_impl_data", ptr %7, i32 0, i32 0
  %9 = load ptr, ptr %8, align 8
  %10 = ptrtoint ptr %6 to i64
  %11 = ptrtoint ptr %9 to i64
  %12 = sub i64 %10, %11
  %13 = sdiv exact i64 %12, 4
  ret i64 %13
}

; Function Attrs: mustprogress nounwind uwtable
define linkonce_odr hidden noundef nonnull align 4 dereferenceable(4) ptr @_ZNK7nanogui5ArrayIiLm2EE1xILm2ETnNSt9enable_ifIXgeT_Li1EEiE4typeELi0EEERKiv(ptr noundef nonnull align 4 dereferenceable(8) %0) #2 comdat align 2 {
  %2 = alloca ptr, align 8
  store ptr %0, ptr %2, align 8
  %3 = load ptr, ptr %2, align 8
  %4 = getelementptr inbounds %"struct.nanogui::Array", ptr %3, i32 0, i32 0
  %5 = getelementptr inbounds [2 x i32], ptr %4, i64 0, i64 0
  ret ptr %5
}

; Function Attrs: mustprogress nounwind uwtable
define linkonce_odr dso_local void @_ZNSt4pairIibEC2IibTnNSt9enable_ifIXaaclsr5_PCCPE22_MoveConstructiblePairIT_T0_EEclsr5_PCCPE30_ImplicitlyMoveConvertiblePairIS3_S4_EEEbE4typeELb1EEEOS3_OS4_(ptr noundef nonnull align 4 dereferenceable(5) %0, ptr noundef nonnull align 4 dereferenceable(4) %1, ptr noundef nonnull align 1 dereferenceable(1) %2) unnamed_addr #2 comdat align 2 {
  %4 = alloca ptr, align 8
  %5 = alloca ptr, align 8
  %6 = alloca ptr, align 8
  store ptr %0, ptr %4, align 8
  store ptr %1, ptr %5, align 8
  store ptr %2, ptr %6, align 8
  %7 = load ptr, ptr %4, align 8
  %8 = getelementptr inbounds %"struct.std::pair", ptr %7, i32 0, i32 0
  %9 = load ptr, ptr %5, align 8
  %10 = load i32, ptr %9, align 4
  store i32 %10, ptr %8, align 4
  %11 = getelementptr inbounds %"struct.std::pair", ptr %7, i32 0, i32 1
  %12 = load ptr, ptr %6, align 8
  %13 = load i8, ptr %12, align 1
  %14 = trunc i8 %13 to i1
  %15 = zext i1 %14 to i8
  store i8 %15, ptr %11, align 4
  ret void
}

; Function Attrs: mustprogress nounwind uwtable
define linkonce_odr hidden noundef nonnull align 4 dereferenceable(4) ptr @_ZNK7nanogui5ArrayIiLm2EE1yILm2ETnNSt9enable_ifIXgeT_Li2EEiE4typeELi0EEERKiv(ptr noundef nonnull align 4 dereferenceable(8) %0) #2 comdat align 2 {
  %2 = alloca ptr, align 8
  store ptr %0, ptr %2, align 8
  %3 = load ptr, ptr %2, align 8
  %4 = getelementptr inbounds %"struct.nanogui::Array", ptr %3, i32 0, i32 0
  %5 = getelementptr inbounds [2 x i32], ptr %4, i64 0, i64 1
  ret ptr %5
}

; Function Attrs: mustprogress nounwind uwtable
define linkonce_odr hidden noundef ptr @_ZNK7nanogui3refINS_5ThemeEEptEv(ptr noundef nonnull align 8 dereferenceable(8) %0) #2 comdat align 2 {
  %2 = alloca ptr, align 8
  store ptr %0, ptr %2, align 8
  %3 = load ptr, ptr %2, align 8
  %4 = getelementptr inbounds %"class.nanogui::ref", ptr %3, i32 0, i32 0
  %5 = load ptr, ptr %4, align 8
  ret ptr %5
}

; Function Attrs: mustprogress uwtable
define hidden i64 @_ZNK7nanogui13TabWidgetBase15tab_at_positionERKNS_5ArrayIiLm2EEEb(ptr noundef nonnull align 8 dereferenceable(416) %0, ptr noundef nonnull align 4 dereferenceable(8) %1, i1 noundef zeroext %2) #0 align 2 {
  %4 = alloca %"struct.std::pair", align 4
  %5 = alloca ptr, align 8
  %6 = alloca ptr, align 8
  %7 = alloca i8, align 1
  %8 = alloca i32, align 4
  %9 = alloca i32, align 4
  %10 = alloca i8, align 1
  %11 = alloca i32, align 4
  %12 = alloca i64, align 8
  %13 = alloca i32, align 4
  %14 = alloca i32, align 4
  %15 = alloca i8, align 1
  %16 = alloca i32, align 4
  %17 = alloca i8, align 1
  store ptr %0, ptr %5, align 8
  store ptr %1, ptr %6, align 8
  %18 = zext i1 %2 to i8
  store i8 %18, ptr %7, align 1
  %19 = load ptr, ptr %5, align 8
  %20 = call noundef i32 @_ZNK7nanogui6Widget9font_sizeEv(ptr noundef nonnull align 8 dereferenceable(140) %19)
  %21 = getelementptr inbounds %"class.nanogui::Widget", ptr %19, i32 0, i32 3
  %22 = call noundef ptr @_ZNK7nanogui3refINS_5ThemeEEptEv(ptr noundef nonnull align 8 dereferenceable(8) %21)
  %23 = getelementptr inbounds %"class.nanogui::Theme", ptr %22, i32 0, i32 19
  %24 = load i32, ptr %23, align 4
  %25 = mul nsw i32 2, %24
  %26 = add nsw i32 %20, %25
  store i32 %26, ptr %8, align 4
  %27 = load i8, ptr %7, align 1
  %28 = trunc i8 %27 to i1
  br i1 %28, label %29, label %48

29:                                               ; preds = %3
  %30 = load ptr, ptr %6, align 8
  %31 = call noundef nonnull align 4 dereferenceable(4) ptr @_ZNK7nanogui5ArrayIiLm2EE1yILm2ETnNSt9enable_ifIXgeT_Li2EEiE4typeELi0EEERKiv(ptr noundef nonnull align 4 dereferenceable(8) %30)
  %32 = load i32, ptr %31, align 4
  %33 = getelementptr inbounds %"class.nanogui::Widget", ptr %19, i32 0, i32 5
  %34 = call noundef nonnull align 4 dereferenceable(4) ptr @_ZNK7nanogui5ArrayIiLm2EE1yILm2ETnNSt9enable_ifIXgeT_Li2EEiE4typeELi0EEERKiv(ptr noundef nonnull align 4 dereferenceable(8) %33)
  %35 = load i32, ptr %34, align 4
  %36 = icmp sle i32 %32, %35
  br i1 %36, label %47, label %37

37:                                               ; preds = %29
  %38 = load ptr, ptr %6, align 8
  %39 = call noundef nonnull align 4 dereferenceable(4) ptr @_ZNK7nanogui5ArrayIiLm2EE1yILm2ETnNSt9enable_ifIXgeT_Li2EEiE4typeELi0EEERKiv(ptr noundef nonnull align 4 dereferenceable(8) %38)
  %40 = load i32, ptr %39, align 4
  %41 = getelementptr inbounds %"class.nanogui::Widget", ptr %19, i32 0, i32 5
  %42 = call noundef nonnull align 4 dereferenceable(4) ptr @_ZNK7nanogui5ArrayIiLm2EE1yILm2ETnNSt9enable_ifIXgeT_Li2EEiE4typeELi0EEERKiv(ptr noundef nonnull align 4 dereferenceable(8) %41)
  %43 = load i32, ptr %42, align 4
  %44 = load i32, ptr %8, align 4
  %45 = add nsw i32 %43, %44
  %46 = icmp sgt i32 %40, %45
  br i1 %46, label %47, label %48

47:                                               ; preds = %37, %29
  store i32 -1, ptr %9, align 4
  store i8 0, ptr %10, align 1
  call void @_ZNSt4pairIibEC2IibTnNSt9enable_ifIXaaclsr5_PCCPE22_MoveConstructiblePairIT_T0_EEclsr5_PCCPE30_ImplicitlyMoveConvertiblePairIS3_S4_EEEbE4typeELb1EEEOS3_OS4_(ptr noundef nonnull align 4 dereferenceable(5) %4, ptr noundef nonnull align 4 dereferenceable(4) %9, ptr noundef nonnull align 1 dereferenceable(1) %10)
  br label %145

48:                                               ; preds = %37, %3
  %49 = load ptr, ptr %6, align 8
  %50 = call noundef nonnull align 4 dereferenceable(4) ptr @_ZNK7nanogui5ArrayIiLm2EE1xILm2ETnNSt9enable_ifIXgeT_Li1EEiE4typeELi0EEERKiv(ptr noundef nonnull align 4 dereferenceable(8) %49)
  %51 = load i32, ptr %50, align 4
  %52 = getelementptr inbounds %"class.nanogui::Widget", ptr %19, i32 0, i32 5
  %53 = call noundef nonnull align 4 dereferenceable(4) ptr @_ZNK7nanogui5ArrayIiLm2EE1xILm2ETnNSt9enable_ifIXgeT_Li1EEiE4typeELi0EEERKiv(ptr noundef nonnull align 4 dereferenceable(8) %52)
  %54 = load i32, ptr %53, align 4
  %55 = sub nsw i32 %51, %54
  store i32 %55, ptr %11, align 4
  store i64 0, ptr %12, align 8
  br label %56

56:                                               ; preds = %141, %48
  %57 = load i64, ptr %12, align 8
  %58 = getelementptr inbounds %"class.nanogui::TabWidgetBase", ptr %19, i32 0, i32 4
  %59 = call noundef i64 @_ZNKSt6vectorIiSaIiEE4sizeEv(ptr noundef nonnull align 8 dereferenceable(24) %58) #13
  %60 = sub i64 %59, 1
  %61 = icmp ult i64 %57, %60
  br i1 %61, label %62, label %144

62:                                               ; preds = %56
  %63 = load i32, ptr %11, align 4
  %64 = getelementptr inbounds %"class.nanogui::TabWidgetBase", ptr %19, i32 0, i32 4
  %65 = load i64, ptr %12, align 8
  %66 = call noundef nonnull align 4 dereferenceable(4) ptr @_ZNKSt6vectorIiSaIiEEixEm(ptr noundef nonnull align 8 dereferenceable(24) %64, i64 noundef %65) #13
  %67 = load i32, ptr %66, align 4
  %68 = icmp sge i32 %63, %67
  br i1 %68, label %69, label %140

69:                                               ; preds = %62
  %70 = load i32, ptr %11, align 4
  %71 = getelementptr inbounds %"class.nanogui::TabWidgetBase", ptr %19, i32 0, i32 4
  %72 = load i64, ptr %12, align 8
  %73 = add i64 %72, 1
  %74 = call noundef nonnull align 4 dereferenceable(4) ptr @_ZNKSt6vectorIiSaIiEEixEm(ptr noundef nonnull align 8 dereferenceable(24) %71, i64 noundef %73) #13
  %75 = load i32, ptr %74, align 4
  %76 = icmp slt i32 %70, %75
  br i1 %76, label %77, label %140

77:                                               ; preds = %69
  %78 = getelementptr inbounds %"class.nanogui::TabWidgetBase", ptr %19, i32 0, i32 4
  %79 = load i64, ptr %12, align 8
  %80 = add i64 %79, 1
  %81 = call noundef nonnull align 4 dereferenceable(4) ptr @_ZNKSt6vectorIiSaIiEEixEm(ptr noundef nonnull align 8 dereferenceable(24) %78, i64 noundef %80) #13
  %82 = load i32, ptr %81, align 4
  %83 = load i32, ptr %11, align 4
  %84 = sub nsw i32 %82, %83
  store i32 %84, ptr %13, align 4
  %85 = load i64, ptr %12, align 8
  %86 = trunc i64 %85 to i32
  store i32 %86, ptr %14, align 4
  %87 = getelementptr inbounds %"class.nanogui::TabWidgetBase", ptr %19, i32 0, i32 15
  %88 = load i8, ptr %87, align 1
  %89 = trunc i8 %88 to i1
  br i1 %89, label %90, label %137

90:                                               ; preds = %77
  %91 = load i32, ptr %13, align 4
  %92 = getelementptr inbounds %"class.nanogui::Widget", ptr %19, i32 0, i32 3
  %93 = call noundef ptr @_ZNK7nanogui3refINS_5ThemeEEptEv(ptr noundef nonnull align 8 dereferenceable(8) %92)
  %94 = getelementptr inbounds %"class.nanogui::Theme", ptr %93, i32 0, i32 18
  %95 = load i32, ptr %94, align 8
  %96 = getelementptr inbounds %"class.nanogui::TabWidgetBase", ptr %19, i32 0, i32 5
  %97 = load i32, ptr %96, align 8
  %98 = add nsw i32 %95, %97
  %99 = sub nsw i32 %98, 4
  %100 = icmp slt i32 %91, %99
  br i1 %100, label %101, label %137

101:                                              ; preds = %90
  %102 = load i32, ptr %13, align 4
  %103 = getelementptr inbounds %"class.nanogui::Widget", ptr %19, i32 0, i32 3
  %104 = call noundef ptr @_ZNK7nanogui3refINS_5ThemeEEptEv(ptr noundef nonnull align 8 dereferenceable(8) %103)
  %105 = getelementptr inbounds %"class.nanogui::Theme", ptr %104, i32 0, i32 18
  %106 = load i32, ptr %105, align 8
  %107 = sub nsw i32 %106, 4
  %108 = icmp sgt i32 %102, %107
  br i1 %108, label %109, label %137

109:                                              ; preds = %101
  %110 = load ptr, ptr %6, align 8
  %111 = call noundef nonnull align 4 dereferenceable(4) ptr @_ZNK7nanogui5ArrayIiLm2EE1yILm2ETnNSt9enable_ifIXgeT_Li2EEiE4typeELi0EEERKiv(ptr noundef nonnull align 4 dereferenceable(8) %110)
  %112 = load i32, ptr %111, align 4
  %113 = getelementptr inbounds %"class.nanogui::Widget", ptr %19, i32 0, i32 5
  %114 = call noundef nonnull align 4 dereferenceable(4) ptr @_ZNK7nanogui5ArrayIiLm2EE1yILm2ETnNSt9enable_ifIXgeT_Li2EEiE4typeELi0EEERKiv(ptr noundef nonnull align 4 dereferenceable(8) %113)
  %115 = load i32, ptr %114, align 4
  %116 = sub nsw i32 %112, %115
  %117 = getelementptr inbounds %"class.nanogui::Widget", ptr %19, i32 0, i32 3
  %118 = call noundef ptr @_ZNK7nanogui3refINS_5ThemeEEptEv(ptr noundef nonnull align 8 dereferenceable(8) %117)
  %119 = getelementptr inbounds %"class.nanogui::Theme", ptr %118, i32 0, i32 19
  %120 = load i32, ptr %119, align 4
  %121 = icmp sgt i32 %116, %120
  br i1 %121, label %122, label %137

122:                                              ; preds = %109
  %123 = load ptr, ptr %6, align 8
  %124 = call noundef nonnull align 4 dereferenceable(4) ptr @_ZNK7nanogui5ArrayIiLm2EE1yILm2ETnNSt9enable_ifIXgeT_Li2EEiE4typeELi0EEERKiv(ptr noundef nonnull align 4 dereferenceable(8) %123)
  %125 = load i32, ptr %124, align 4
  %126 = getelementptr inbounds %"class.nanogui::Widget", ptr %19, i32 0, i32 5
  %127 = call noundef nonnull align 4 dereferenceable(4) ptr @_ZNK7nanogui5ArrayIiLm2EE1yILm2ETnNSt9enable_ifIXgeT_Li2EEiE4typeELi0EEERKiv(ptr noundef nonnull align 4 dereferenceable(8) %126)
  %128 = load i32, ptr %127, align 4
  %129 = sub nsw i32 %125, %128
  %130 = load i32, ptr %8, align 4
  %131 = getelementptr inbounds %"class.nanogui::Widget", ptr %19, i32 0, i32 3
  %132 = call noundef ptr @_ZNK7nanogui3refINS_5ThemeEEptEv(ptr noundef nonnull align 8 dereferenceable(8) %131)
  %133 = getelementptr inbounds %"class.nanogui::Theme", ptr %132, i32 0, i32 19
  %134 = load i32, ptr %133, align 4
  %135 = sub nsw i32 %130, %134
  %136 = icmp sle i32 %129, %135
  br label %137

137:                                              ; preds = %122, %109, %101, %90, %77
  %138 = phi i1 [ false, %109 ], [ false, %101 ], [ false, %90 ], [ false, %77 ], [ %136, %122 ]
  %139 = zext i1 %138 to i8
  store i8 %139, ptr %15, align 1
  call void @_ZNSt4pairIibEC2IibTnNSt9enable_ifIXaaclsr5_PCCPE22_MoveConstructiblePairIT_T0_EEclsr5_PCCPE30_ImplicitlyMoveConvertiblePairIS3_S4_EEEbE4typeELb1EEEOS3_OS4_(ptr noundef nonnull align 4 dereferenceable(5) %4, ptr noundef nonnull align 4 dereferenceable(4) %14, ptr noundef nonnull align 1 dereferenceable(1) %15)
  br label %145

140:                                              ; preds = %69, %62
  br label %141

141:                                              ; preds = %140
  %142 = load i64, ptr %12, align 8
  %143 = add i64 %142, 1
  store i64 %143, ptr %12, align 8
  br label %56, !llvm.loop !9

144:                                              ; preds = %56
  store i32 -1, ptr %16, align 4
  store i8 0, ptr %17, align 1
  call void @_ZNSt4pairIibEC2IibTnNSt9enable_ifIXaaclsr5_PCCPE22_MoveConstructiblePairIT_T0_EEclsr5_PCCPE30_ImplicitlyMoveConvertiblePairIS3_S4_EEEbE4typeELb1EEEOS3_OS4_(ptr noundef nonnull align 4 dereferenceable(5) %4, ptr noundef nonnull align 4 dereferenceable(4) %16, ptr noundef nonnull align 1 dereferenceable(1) %17)
  br label %145

145:                                              ; preds = %144, %137, %47
  %146 = load i64, ptr %4, align 4
  ret i64 %146
}