; Function Attrs: mustprogress uwtable
define hidden i64 @_ZNK7nanogui13TabWidgetBase15tab_at_positionERKNS_5ArrayIiLm2EEEb(ptr noundef nonnull align 8 dereferenceable(416) %0, ptr nocapture noundef nonnull readonly align 4 dereferenceable(8) %1, i1 noundef zeroext %2) local_unnamed_addr #0 align 2 {
  %4 = tail call noundef i32 @_ZNK7nanogui6Widget9font_sizeEv(ptr noundef nonnull align 8 dereferenceable(140) %0)
  %5 = getelementptr inbounds i8, ptr %0, i64 24
  %6 = load ptr, ptr %5, align 8
  %7 = getelementptr inbounds i8, ptr %6, i64 84
  %8 = load i32, ptr %7, align 4
  %9 = shl nsw i32 %8, 1
  %10 = add nsw i32 %9, %4
  br i1 %2, label %11, label %18

11:                                               ; preds = %3
  %12 = getelementptr inbounds i8, ptr %1, i64 4
  %13 = load i32, ptr %12, align 4
  %14 = getelementptr inbounds i8, ptr %0, i64 44
  %15 = load i32, ptr %14, align 4
  %.not = icmp sle i32 %13, %15
  %16 = add nsw i32 %15, %10
  %17 = icmp sgt i32 %13, %16
  %or.cond = select i1 %.not, i1 true, i1 %17
  br i1 %or.cond, label %.loopexit, label %18

18:                                               ; preds = %11, %3
  %19 = load i32, ptr %1, align 4
  %20 = getelementptr inbounds i8, ptr %0, i64 40
  %21 = load i32, ptr %20, align 8
  %22 = sub nsw i32 %19, %21
  %23 = getelementptr inbounds i8, ptr %0, i64 224
  %24 = getelementptr inbounds i8, ptr %0, i64 232
  %25 = load ptr, ptr %24, align 8
  %26 = load ptr, ptr %23, align 8
  %27 = ptrtoint ptr %25 to i64
  %28 = ptrtoint ptr %26 to i64
  %29 = sub i64 %27, %28
  %30 = ashr exact i64 %29, 2
  %31 = add nsw i64 %30, -1
  %invariant.gep = getelementptr i8, ptr %26, i64 4
  %.not34 = icmp eq i64 %31, 0
  br i1 %.not34, label %.loopexit, label %.lr.ph

.lr.ph:                                           ; preds = %18, %61
  %.033 = phi i64 [ %62, %61 ], [ 0, %18 ]
  %32 = getelementptr inbounds i32, ptr %26, i64 %.033
  %33 = load i32, ptr %32, align 4
  %.not21 = icmp slt i32 %22, %33
  br i1 %.not21, label %61, label %34

34:                                               ; preds = %.lr.ph
  %gep = getelementptr i32, ptr %invariant.gep, i64 %.033
  %35 = load i32, ptr %gep, align 4
  %36 = icmp slt i32 %22, %35
  br i1 %36, label %37, label %61

37:                                               ; preds = %34
  %38 = getelementptr inbounds i8, ptr %0, i64 285
  %39 = load i8, ptr %38, align 1
  %40 = and i8 %39, 1
  %.not22 = icmp eq i8 %40, 0
  br i1 %.not22, label %.loopexit, label %41

41:                                               ; preds = %37
  %42 = sub nsw i32 %35, %22
  %43 = getelementptr inbounds i8, ptr %6, i64 80
  %44 = load i32, ptr %43, align 8
  %45 = getelementptr inbounds i8, ptr %0, i64 248
  %46 = load i32, ptr %45, align 8
  %47 = add i32 %44, -4
  %48 = add i32 %47, %46
  %49 = icmp slt i32 %42, %48
  %50 = icmp sgt i32 %42, %47
  %or.cond30 = and i1 %49, %50
  br i1 %or.cond30, label %51, label %.loopexit

51:                                               ; preds = %41
  %52 = getelementptr inbounds i8, ptr %1, i64 4
  %53 = load i32, ptr %52, align 4
  %54 = getelementptr inbounds i8, ptr %0, i64 44
  %55 = load i32, ptr %54, align 4
  %56 = sub nsw i32 %53, %55
  %57 = icmp sgt i32 %56, %8
  br i1 %57, label %58, label %.loopexit

58:                                               ; preds = %51
  %59 = sub nsw i32 %10, %8
  %.not31 = icmp sgt i32 %56, %59
  %60 = select i1 %.not31, i64 0, i64 4294967296
  br label %.loopexit

61:                                               ; preds = %.lr.ph, %34
  %62 = add nuw i64 %.033, 1
  %exitcond.not = icmp eq i64 %62, %31
  br i1 %exitcond.not, label %.loopexit, label %.lr.ph, !llvm.loop !14

.loopexit:                                        ; preds = %61, %18, %37, %41, %51, %58, %11
  %.sroa.0.0 = phi i64 [ 4294967295, %11 ], [ %.033, %58 ], [ %.033, %51 ], [ %.033, %41 ], [ %.033, %37 ], [ 4294967295, %18 ], [ 4294967295, %61 ]
  %.sroa.4.0 = phi i64 [ 0, %11 ], [ %60, %58 ], [ 0, %51 ], [ 0, %41 ], [ 0, %37 ], [ 0, %18 ], [ 0, %61 ]
  %.sroa.0.0.insert.ext = and i64 %.sroa.0.0, 4294967295
  %.sroa.0.0.insert.insert = or disjoint i64 %.sroa.4.0, %.sroa.0.0.insert.ext
  ret i64 %.sroa.0.0.insert.insert
}